target datalayout = "e-m:e-p270:32:32-p271:32:32-p272:64:64-i64:64-i128:128-f80:128-n8:16:32:64-S128"
target triple = "x86_64-pc-linux-gnu"

%class.anon = type { ptr, i64 }

@.str = private unnamed_addr constant [10 x i8] c"translate\00", align 1
@.str.1 = private unnamed_addr constant [6 x i8] c"scale\00", align 1
@.str.2 = private unnamed_addr constant [8 x i8] c"rotateX\00", align 1
@.str.3 = private unnamed_addr constant [8 x i8] c"rotateY\00", align 1
@.str.4 = private unnamed_addr constant [8 x i8] c"rotateZ\00", align 1
@.str.5 = private unnamed_addr constant [10 x i8] c"rotateXYZ\00", align 1
@.str.6 = private unnamed_addr constant [10 x i8] c"rotateXZY\00", align 1
@.str.7 = private unnamed_addr constant [10 x i8] c"rotateYXZ\00", align 1
@.str.8 = private unnamed_addr constant [10 x i8] c"rotateYZX\00", align 1
@.str.9 = private unnamed_addr constant [10 x i8] c"rotateZXY\00", align 1
@.str.10 = private unnamed_addr constant [10 x i8] c"rotateZYX\00", align 1
@.str.11 = private unnamed_addr constant [7 x i8] c"orient\00", align 1
@.str.12 = private unnamed_addr constant [10 x i8] c"transform\00", align 1
@.str.20 = private unnamed_addr constant [1 x i8] zeroinitializer, align 1

; Function Attrs: mustprogress uwtable
define noundef i32 @_ZN32pxrInternal_v0_24__pxrReserved__14UsdGeomXformOp25_GetOpTypeEnumFromCStringEPKcm(ptr noundef %0, i64 noundef %1) #1 align 2 {
  %3 = alloca i32, align 4
  %4 = alloca ptr, align 8
  %5 = alloca i64, align 8
  %6 = alloca %class.anon, align 8
  store ptr %0, ptr %4, align 8
  store i64 %1, ptr %5, align 8
  %7 = getelementptr inbounds nuw %class.anon, ptr %6, i32 0, i32 0
  %8 = load ptr, ptr %4, align 8
  store ptr %8, ptr %7, align 8
  %9 = getelementptr inbounds nuw %class.anon, ptr %6, i32 0, i32 1
  %10 = load i64, ptr %5, align 8
  store i64 %10, ptr %9, align 8
  %11 = call noundef zeroext i1 @"_ZZN32pxrInternal_v0_24__pxrReserved__14UsdGeomXformOp25_GetOpTypeEnumFromCStringEPKcmENK3$_0clES2_"(ptr noundef nonnull align 8 dereferenceable(16) %6, ptr noundef @.str.12)
  br i1 %11, label %12, label %13

12:                                               ; preds = %2
  store i32 13, ptr %3, align 4
  br label %53

13:                                               ; preds = %2
  %14 = call noundef zeroext i1 @"_ZZN32pxrInternal_v0_24__pxrReserved__14UsdGeomXformOp25_GetOpTypeEnumFromCStringEPKcmENK3$_0clES2_"(ptr noundef nonnull align 8 dereferenceable(16) %6, ptr noundef @.str)
  br i1 %14, label %15, label %16

15:                                               ; preds = %13
  store i32 1, ptr %3, align 4
  br label %53

16:                                               ; preds = %13
  %17 = call noundef zeroext i1 @"_ZZN32pxrInternal_v0_24__pxrReserved__14UsdGeomXformOp25_GetOpTypeEnumFromCStringEPKcmENK3$_0clES2_"(ptr noundef nonnull align 8 dereferenceable(16) %6, ptr noundef @.str.5)
  br i1 %17, label %18, label %19

18:                                               ; preds = %16
  store i32 6, ptr %3, align 4
  br label %53

19:                                               ; preds = %16
  %20 = call noundef zeroext i1 @"_ZZN32pxrInternal_v0_24__pxrReserved__14UsdGeomXformOp25_GetOpTypeEnumFromCStringEPKcmENK3$_0clES2_"(ptr noundef nonnull align 8 dereferenceable(16) %6, ptr noundef @.str.1)
  br i1 %20, label %21, label %22

21:                                               ; preds = %19
  store i32 2, ptr %3, align 4
  br label %53

22:                                               ; preds = %19
  %23 = call noundef zeroext i1 @"_ZZN32pxrInternal_v0_24__pxrReserved__14UsdGeomXformOp25_GetOpTypeEnumFromCStringEPKcmENK3$_0clES2_"(ptr noundef nonnull align 8 dereferenceable(16) %6, ptr noundef @.str.2)
  br i1 %23, label %24, label %25

24:                                               ; preds = %22
  store i32 3, ptr %3, align 4
  br label %53

25:                                               ; preds = %22
  %26 = call noundef zeroext i1 @"_ZZN32pxrInternal_v0_24__pxrReserved__14UsdGeomXformOp25_GetOpTypeEnumFromCStringEPKcmENK3$_0clES2_"(ptr noundef nonnull align 8 dereferenceable(16) %6, ptr noundef @.str.3)
  br i1 %26, label %27, label %28

27:                                               ; preds = %25
  store i32 4, ptr %3, align 4
  br label %53

28:                                               ; preds = %25
  %29 = call noundef zeroext i1 @"_ZZN32pxrInternal_v0_24__pxrReserved__14UsdGeomXformOp25_GetOpTypeEnumFromCStringEPKcmENK3$_0clES2_"(ptr noundef nonnull align 8 dereferenceable(16) %6, ptr noundef @.str.4)
  br i1 %29, label %30, label %31

30:                                               ; preds = %28
  store i32 5, ptr %3, align 4
  br label %53

31:                                               ; preds = %28
  %32 = call noundef zeroext i1 @"_ZZN32pxrInternal_v0_24__pxrReserved__14UsdGeomXformOp25_GetOpTypeEnumFromCStringEPKcmENK3$_0clES2_"(ptr noundef nonnull align 8 dereferenceable(16) %6, ptr noundef @.str.6)
  br i1 %32, label %33, label %34

33:                                               ; preds = %31
  store i32 7, ptr %3, align 4
  br label %53

34:                                               ; preds = %31
  %35 = call noundef zeroext i1 @"_ZZN32pxrInternal_v0_24__pxrReserved__14UsdGeomXformOp25_GetOpTypeEnumFromCStringEPKcmENK3$_0clES2_"(ptr noundef nonnull align 8 dereferenceable(16) %6, ptr noundef @.str.7)
  br i1 %35, label %36, label %37

36:                                               ; preds = %34
  store i32 8, ptr %3, align 4
  br label %53

37:                                               ; preds = %34
  %38 = call noundef zeroext i1 @"_ZZN32pxrInternal_v0_24__pxrReserved__14UsdGeomXformOp25_GetOpTypeEnumFromCStringEPKcmENK3$_0clES2_"(ptr noundef nonnull align 8 dereferenceable(16) %6, ptr noundef @.str.8)
  br i1 %38, label %39, label %40

39:                                               ; preds = %37
  store i32 9, ptr %3, align 4
  br label %53

40:                                               ; preds = %37
  %41 = call noundef zeroext i1 @"_ZZN32pxrInternal_v0_24__pxrReserved__14UsdGeomXformOp25_GetOpTypeEnumFromCStringEPKcmENK3$_0clES2_"(ptr noundef nonnull align 8 dereferenceable(16) %6, ptr noundef @.str.9)
  br i1 %41, label %42, label %43

42:                                               ; preds = %40
  store i32 10, ptr %3, align 4
  br label %53

43:                                               ; preds = %40
  %44 = call noundef zeroext i1 @"_ZZN32pxrInternal_v0_24__pxrReserved__14UsdGeomXformOp25_GetOpTypeEnumFromCStringEPKcmENK3$_0clES2_"(ptr noundef nonnull align 8 dereferenceable(16) %6, ptr noundef @.str.10)
  br i1 %44, label %45, label %46

45:                                               ; preds = %43
  store i32 11, ptr %3, align 4
  br label %53

46:                                               ; preds = %43
  %47 = call noundef zeroext i1 @"_ZZN32pxrInternal_v0_24__pxrReserved__14UsdGeomXformOp25_GetOpTypeEnumFromCStringEPKcmENK3$_0clES2_"(ptr noundef nonnull align 8 dereferenceable(16) %6, ptr noundef @.str.11)
  br i1 %47, label %48, label %49

48:                                               ; preds = %46
  store i32 12, ptr %3, align 4
  br label %53

49:                                               ; preds = %46
  %50 = call noundef zeroext i1 @"_ZZN32pxrInternal_v0_24__pxrReserved__14UsdGeomXformOp25_GetOpTypeEnumFromCStringEPKcmENK3$_0clES2_"(ptr noundef nonnull align 8 dereferenceable(16) %6, ptr noundef @.str.20)
  br i1 %50, label %51, label %52

51:                                               ; preds = %49
  store i32 0, ptr %3, align 4
  br label %53

52:                                               ; preds = %49
  store i32 0, ptr %3, align 4
  br label %53

53:                                               ; preds = %52, %51, %48, %45, %42, %39, %36, %33, %30, %27, %24, %21, %18, %15, %12
  %54 = load i32, ptr %3, align 4
  ret i32 %54
}