; Function Attrs: mustprogress nofree nounwind willreturn memory(argmem: read) uwtable
define noundef range(i32 0, 14) i32 @_ZN32pxrInternal_v0_24__pxrReserved__14UsdGeomXformOp25_GetOpTypeEnumFromCStringEPKcm(ptr nocapture noundef readonly %0, i64 noundef %1) local_unnamed_addr #5 align 2 {
  switch i64 %1, label %"_ZZN32pxrInternal_v0_24__pxrReserved__14UsdGeomXformOp25_GetOpTypeEnumFromCStringEPKcmENK3$_0clES2_.exit33.thread" [
    i64 9, label %"_ZZN32pxrInternal_v0_24__pxrReserved__14UsdGeomXformOp25_GetOpTypeEnumFromCStringEPKcmENK3$_0clES2_.exit"
    i64 5, label %"_ZZN32pxrInternal_v0_24__pxrReserved__14UsdGeomXformOp25_GetOpTypeEnumFromCStringEPKcmENK3$_0clES2_.exit31"
    i64 7, label %"_ZZN32pxrInternal_v0_24__pxrReserved__14UsdGeomXformOp25_GetOpTypeEnumFromCStringEPKcmENK3$_0clES2_.exit32"
  ]

"_ZZN32pxrInternal_v0_24__pxrReserved__14UsdGeomXformOp25_GetOpTypeEnumFromCStringEPKcmENK3$_0clES2_.exit": ; preds = %2
  %3 = tail call i32 @strncmp(ptr noundef nonnull readonly dereferenceable(10) @.str.12, ptr noundef nonnull readonly dereferenceable(1) %0, i64 noundef 9) #25
  %4 = icmp eq i32 %3, 0
  br i1 %4, label %28, label %"_ZZN32pxrInternal_v0_24__pxrReserved__14UsdGeomXformOp25_GetOpTypeEnumFromCStringEPKcmENK3$_0clES2_.exit29"

"_ZZN32pxrInternal_v0_24__pxrReserved__14UsdGeomXformOp25_GetOpTypeEnumFromCStringEPKcmENK3$_0clES2_.exit29": ; preds = %"_ZZN32pxrInternal_v0_24__pxrReserved__14UsdGeomXformOp25_GetOpTypeEnumFromCStringEPKcmENK3$_0clES2_.exit"
  %5 = tail call i32 @strncmp(ptr noundef nonnull readonly dereferenceable(10) @.str, ptr noundef nonnull readonly dereferenceable(1) %0, i64 noundef 9) #25
  %6 = icmp eq i32 %5, 0
  br i1 %6, label %28, label %"_ZZN32pxrInternal_v0_24__pxrReserved__14UsdGeomXformOp25_GetOpTypeEnumFromCStringEPKcmENK3$_0clES2_.exit30"

"_ZZN32pxrInternal_v0_24__pxrReserved__14UsdGeomXformOp25_GetOpTypeEnumFromCStringEPKcmENK3$_0clES2_.exit30": ; preds = %"_ZZN32pxrInternal_v0_24__pxrReserved__14UsdGeomXformOp25_GetOpTypeEnumFromCStringEPKcmENK3$_0clES2_.exit29"
  %7 = tail call i32 @strncmp(ptr noundef nonnull readonly dereferenceable(10) @.str.5, ptr noundef nonnull readonly dereferenceable(1) %0, i64 noundef 9) #25
  %8 = icmp eq i32 %7, 0
  br i1 %8, label %28, label %"_ZZN32pxrInternal_v0_24__pxrReserved__14UsdGeomXformOp25_GetOpTypeEnumFromCStringEPKcmENK3$_0clES2_.exit33.thread"

"_ZZN32pxrInternal_v0_24__pxrReserved__14UsdGeomXformOp25_GetOpTypeEnumFromCStringEPKcmENK3$_0clES2_.exit31": ; preds = %2
  %9 = tail call i32 @strncmp(ptr noundef nonnull readonly @.str.1, ptr noundef readonly %0, i64 noundef %1) #25
  %10 = icmp eq i32 %9, 0
  br i1 %10, label %28, label %"_ZZN32pxrInternal_v0_24__pxrReserved__14UsdGeomXformOp25_GetOpTypeEnumFromCStringEPKcmENK3$_0clES2_.exit33.thread"

"_ZZN32pxrInternal_v0_24__pxrReserved__14UsdGeomXformOp25_GetOpTypeEnumFromCStringEPKcmENK3$_0clES2_.exit32": ; preds = %2
  %11 = tail call i32 @strncmp(ptr noundef nonnull readonly @.str.2, ptr noundef readonly %0, i64 noundef %1) #25
  %12 = icmp eq i32 %11, 0
  br i1 %12, label %28, label %"_ZZN32pxrInternal_v0_24__pxrReserved__14UsdGeomXformOp25_GetOpTypeEnumFromCStringEPKcmENK3$_0clES2_.exit33"

"_ZZN32pxrInternal_v0_24__pxrReserved__14UsdGeomXformOp25_GetOpTypeEnumFromCStringEPKcmENK3$_0clES2_.exit33": ; preds = %"_ZZN32pxrInternal_v0_24__pxrReserved__14UsdGeomXformOp25_GetOpTypeEnumFromCStringEPKcmENK3$_0clES2_.exit32"
  %13 = tail call i32 @strncmp(ptr noundef nonnull readonly dereferenceable(8) @.str.3, ptr noundef nonnull readonly dereferenceable(1) %0, i64 noundef 7) #25
  %14 = icmp eq i32 %13, 0
  br i1 %14, label %28, label %"_ZZN32pxrInternal_v0_24__pxrReserved__14UsdGeomXformOp25_GetOpTypeEnumFromCStringEPKcmENK3$_0clES2_.exit33.thread"

"_ZZN32pxrInternal_v0_24__pxrReserved__14UsdGeomXformOp25_GetOpTypeEnumFromCStringEPKcmENK3$_0clES2_.exit33.thread": ; preds = %"_ZZN32pxrInternal_v0_24__pxrReserved__14UsdGeomXformOp25_GetOpTypeEnumFromCStringEPKcmENK3$_0clES2_.exit31", %"_ZZN32pxrInternal_v0_24__pxrReserved__14UsdGeomXformOp25_GetOpTypeEnumFromCStringEPKcmENK3$_0clES2_.exit30", %2, %"_ZZN32pxrInternal_v0_24__pxrReserved__14UsdGeomXformOp25_GetOpTypeEnumFromCStringEPKcmENK3$_0clES2_.exit33"
  %15 = tail call fastcc noundef zeroext i1 @"_ZZN32pxrInternal_v0_24__pxrReserved__14UsdGeomXformOp25_GetOpTypeEnumFromCStringEPKcmENK3$_0clES2_"(ptr %0, i64 %1, ptr noundef nonnull @.str.4)
  br i1 %15, label %28, label %16

16:                                               ; preds = %"_ZZN32pxrInternal_v0_24__pxrReserved__14UsdGeomXformOp25_GetOpTypeEnumFromCStringEPKcmENK3$_0clES2_.exit33.thread"
  %17 = tail call fastcc noundef zeroext i1 @"_ZZN32pxrInternal_v0_24__pxrReserved__14UsdGeomXformOp25_GetOpTypeEnumFromCStringEPKcmENK3$_0clES2_"(ptr %0, i64 %1, ptr noundef nonnull @.str.6)
  br i1 %17, label %28, label %18

18:                                               ; preds = %16
  %19 = tail call fastcc noundef zeroext i1 @"_ZZN32pxrInternal_v0_24__pxrReserved__14UsdGeomXformOp25_GetOpTypeEnumFromCStringEPKcmENK3$_0clES2_"(ptr %0, i64 %1, ptr noundef nonnull @.str.7)
  br i1 %19, label %28, label %20

20:                                               ; preds = %18
  %21 = tail call fastcc noundef zeroext i1 @"_ZZN32pxrInternal_v0_24__pxrReserved__14UsdGeomXformOp25_GetOpTypeEnumFromCStringEPKcmENK3$_0clES2_"(ptr %0, i64 %1, ptr noundef nonnull @.str.8)
  br i1 %21, label %28, label %22

22:                                               ; preds = %20
  %23 = tail call fastcc noundef zeroext i1 @"_ZZN32pxrInternal_v0_24__pxrReserved__14UsdGeomXformOp25_GetOpTypeEnumFromCStringEPKcmENK3$_0clES2_"(ptr %0, i64 %1, ptr noundef nonnull @.str.9)
  br i1 %23, label %28, label %24

24:                                               ; preds = %22
  %25 = tail call fastcc noundef zeroext i1 @"_ZZN32pxrInternal_v0_24__pxrReserved__14UsdGeomXformOp25_GetOpTypeEnumFromCStringEPKcmENK3$_0clES2_"(ptr %0, i64 %1, ptr noundef nonnull @.str.10)
  br i1 %25, label %28, label %26

26:                                               ; preds = %24
  %27 = tail call fastcc noundef zeroext i1 @"_ZZN32pxrInternal_v0_24__pxrReserved__14UsdGeomXformOp25_GetOpTypeEnumFromCStringEPKcmENK3$_0clES2_"(ptr %0, i64 %1, ptr noundef nonnull @.str.11)
  %spec.select = select i1 %27, i32 12, i32 0
  br label %28

28:                                               ; preds = %26, %24, %22, %20, %18, %16, %"_ZZN32pxrInternal_v0_24__pxrReserved__14UsdGeomXformOp25_GetOpTypeEnumFromCStringEPKcmENK3$_0clES2_.exit33.thread", %"_ZZN32pxrInternal_v0_24__pxrReserved__14UsdGeomXformOp25_GetOpTypeEnumFromCStringEPKcmENK3$_0clES2_.exit33", %"_ZZN32pxrInternal_v0_24__pxrReserved__14UsdGeomXformOp25_GetOpTypeEnumFromCStringEPKcmENK3$_0clES2_.exit32", %"_ZZN32pxrInternal_v0_24__pxrReserved__14UsdGeomXformOp25_GetOpTypeEnumFromCStringEPKcmENK3$_0clES2_.exit31", %"_ZZN32pxrInternal_v0_24__pxrReserved__14UsdGeomXformOp25_GetOpTypeEnumFromCStringEPKcmENK3$_0clES2_.exit30", %"_ZZN32pxrInternal_v0_24__pxrReserved__14UsdGeomXformOp25_GetOpTypeEnumFromCStringEPKcmENK3$_0clES2_.exit29", %"_ZZN32pxrInternal_v0_24__pxrReserved__14UsdGeomXformOp25_GetOpTypeEnumFromCStringEPKcmENK3$_0clES2_.exit"
  %.0 = phi i32 [ 13, %"_ZZN32pxrInternal_v0_24__pxrReserved__14UsdGeomXformOp25_GetOpTypeEnumFromCStringEPKcmENK3$_0clES2_.exit" ], [ 1, %"_ZZN32pxrInternal_v0_24__pxrReserved__14UsdGeomXformOp25_GetOpTypeEnumFromCStringEPKcmENK3$_0clES2_.exit29" ], [ 6, %"_ZZN32pxrInternal_v0_24__pxrReserved__14UsdGeomXformOp25_GetOpTypeEnumFromCStringEPKcmENK3$_0clES2_.exit30" ], [ 2, %"_ZZN32pxrInternal_v0_24__pxrReserved__14UsdGeomXformOp25_GetOpTypeEnumFromCStringEPKcmENK3$_0clES2_.exit31" ], [ 3, %"_ZZN32pxrInternal_v0_24__pxrReserved__14UsdGeomXformOp25_GetOpTypeEnumFromCStringEPKcmENK3$_0clES2_.exit32" ], [ 4, %"_ZZN32pxrInternal_v0_24__pxrReserved__14UsdGeomXformOp25_GetOpTypeEnumFromCStringEPKcmENK3$_0clES2_.exit33" ], [ 5, %"_ZZN32pxrInternal_v0_24__pxrReserved__14UsdGeomXformOp25_GetOpTypeEnumFromCStringEPKcmENK3$_0clES2_.exit33.thread" ], [ 7, %16 ], [ 8, %18 ], [ 9, %20 ], [ 10, %22 ], [ 11, %24 ], [ %spec.select, %26 ]
  ret i32 %.0
}